; Function Attrs: mustprogress nounwind uwtable
define dso_local void @_ZN4llvm14RISCVMCAsmInfoC2ERKNS_6TripleE(ptr noundef nonnull align 8 dereferenceable(484) %0, ptr noundef nonnull align 8 dereferenceable(56) %1) unnamed_addr #1 align 2 {
  tail call void @_ZN4llvm12MCAsmInfoELFC2Ev(ptr noundef nonnull align 8 dereferenceable(484) %0) #5
  store ptr getelementptr inbounds inrange(-16, 104) (i8, ptr @_ZTVN4llvm14RISCVMCAsmInfoE, i64 16), ptr %0, align 8
  %3 = tail call noundef zeroext i1 @_ZNK4llvm6Triple11isArch64BitEv(ptr noundef nonnull align 8 dereferenceable(56) %1) #5
  %4 = select i1 %3, i32 8, i32 4
  %5 = getelementptr inbounds nuw i8, ptr %0, i64 12
  store i32 %4, ptr %5, align 4
  %6 = getelementptr inbounds nuw i8, ptr %0, i64 8
  store i32 %4, ptr %6, align 8
  %7 = getelementptr inbounds nuw i8, ptr %0, i64 48
  store ptr @.str, ptr %7, align 8
  %.sroa.2.0..sroa_idx = getelementptr inbounds i8, ptr %0, i64 56
  store i64 1, ptr %.sroa.2.0..sroa_idx, align 8
  %8 = getelementptr inbounds nuw i8, ptr %0, i64 339
  store i8 0, ptr %8, align 1
  %9 = getelementptr inbounds nuw i8, ptr %0, i64 408
  store i8 1, ptr %9, align 8
  %10 = getelementptr inbounds nuw i8, ptr %0, i64 412
  store i32 1, ptr %10, align 4
  %11 = getelementptr inbounds nuw i8, ptr %0, i64 256
  store ptr @.str.1, ptr %11, align 8
  %12 = getelementptr inbounds nuw i8, ptr %0, i64 264
  store ptr @.str.2, ptr %12, align 8
  ret void
}